target datalayout = "e-m:e-p270:32:32-p271:32:32-p272:64:64-i64:64-i128:128-f80:128-n8:16:32:64-S128"
target triple = "x86_64-unknown-linux-gnu"

%struct.timeval = type { i64, i64 }

@trace_events_enabled_count = external global i32, align 4
@message_with_timestamp = external global i8, align 1
@qemu_loglevel = external global i32, align 4
@_TRACE_SDHCI_ACCESS_DSTATE = external global i16, align 2
@.str.66 = private unnamed_addr constant [64 x i8] c"%d@%zu.%06zu:sdhci_access %s%u: addr[0x%04lx] %s 0x%08lx (%lu)\0A\00", align 1
@.str.67 = private unnamed_addr constant [51 x i8] c"sdhci_access %s%u: addr[0x%04lx] %s 0x%08lx (%lu)\0A\00", align 1

; Function Attrs: nounwind sspstrong uwtable
define internal zeroext i1 @qemu_loglevel_mask(i32 noundef %mask) #0 {
entry:
  %mask.addr = alloca i32, align 4
  store i32 %mask, ptr %mask.addr, align 4
  %0 = load i32, ptr @qemu_loglevel, align 4
  %1 = load i32, ptr %mask.addr, align 4
  %and = and i32 %0, %1
  %cmp = icmp ne i32 %and, 0
  ret i1 %cmp
}

; Function Attrs: nounwind sspstrong uwtable
define internal void @_nocheck__trace_sdhci_access(ptr noundef %access, i32 noundef %size, i64 noundef %offset, ptr noundef %dir, i64 noundef %val, i64 noundef %val2) #0 {
entry:
  %access.addr = alloca ptr, align 8
  %size.addr = alloca i32, align 4
  %offset.addr = alloca i64, align 8
  %dir.addr = alloca ptr, align 8
  %val.addr = alloca i64, align 8
  %val2.addr = alloca i64, align 8
  %_now = alloca %struct.timeval, align 8
  store ptr %access, ptr %access.addr, align 8
  store i32 %size, ptr %size.addr, align 4
  store i64 %offset, ptr %offset.addr, align 8
  store ptr %dir, ptr %dir.addr, align 8
  store i64 %val, ptr %val.addr, align 8
  store i64 %val2, ptr %val2.addr, align 8
  %0 = load i32, ptr @trace_events_enabled_count, align 4
  %tobool = icmp ne i32 %0, 0
  %lnot = xor i1 %tobool, true
  %lnot1 = xor i1 %lnot, true
  %lnot.ext = zext i1 %lnot1 to i32
  %conv = sext i32 %lnot.ext to i64
  %tobool2 = icmp ne i64 %conv, 0
  br i1 %tobool2, label %land.lhs.true, label %if.end11

land.lhs.true:                                    ; preds = %entry
  %1 = load i16, ptr @_TRACE_SDHCI_ACCESS_DSTATE, align 2
  %conv3 = zext i16 %1 to i32
  %tobool4 = icmp ne i32 %conv3, 0
  br i1 %tobool4, label %land.lhs.true5, label %if.end11

land.lhs.true5:                                   ; preds = %land.lhs.true
  %call = call zeroext i1 @qemu_loglevel_mask(i32 noundef 32768)
  br i1 %call, label %if.then, label %if.end11

if.then:                                          ; preds = %land.lhs.true5
  %2 = load i8, ptr @message_with_timestamp, align 1
  %tobool7 = trunc i8 %2 to i1
  br i1 %tobool7, label %if.then8, label %if.else

if.then8:                                         ; preds = %if.then
  %call9 = call i32 @gettimeofday(ptr noundef %_now, ptr noundef null) #11
  %call10 = call i32 @qemu_get_thread_id()
  %tv_sec = getelementptr inbounds %struct.timeval, ptr %_now, i32 0, i32 0
  %3 = load i64, ptr %tv_sec, align 8
  %tv_usec = getelementptr inbounds %struct.timeval, ptr %_now, i32 0, i32 1
  %4 = load i64, ptr %tv_usec, align 8
  %5 = load ptr, ptr %access.addr, align 8
  %6 = load i32, ptr %size.addr, align 4
  %7 = load i64, ptr %offset.addr, align 8
  %8 = load ptr, ptr %dir.addr, align 8
  %9 = load i64, ptr %val.addr, align 8
  %10 = load i64, ptr %val2.addr, align 8
  call void (ptr, ...) @qemu_log(ptr noundef @.str.66, i32 noundef %call10, i64 noundef %3, i64 noundef %4, ptr noundef %5, i32 noundef %6, i64 noundef %7, ptr noundef %8, i64 noundef %9, i64 noundef %10)
  br label %if.end

if.else:                                          ; preds = %if.then
  %11 = load ptr, ptr %access.addr, align 8
  %12 = load i32, ptr %size.addr, align 4
  %13 = load i64, ptr %offset.addr, align 8
  %14 = load ptr, ptr %dir.addr, align 8
  %15 = load i64, ptr %val.addr, align 8
  %16 = load i64, ptr %val2.addr, align 8
  call void (ptr, ...) @qemu_log(ptr noundef @.str.67, ptr noundef %11, i32 noundef %12, i64 noundef %13, ptr noundef %14, i64 noundef %15, i64 noundef %16)
  br label %if.end

if.end:                                           ; preds = %if.else, %if.then8
  br label %if.end11

if.end11:                                         ; preds = %if.end, %land.lhs.true5, %land.lhs.true, %entry
  ret void
}

; Function Attrs: nounwind sspstrong uwtable
define internal void @trace_sdhci_access(ptr noundef %access, i32 noundef %size, i64 noundef %offset, ptr noundef %dir, i64 noundef %val, i64 noundef %val2) #0 {
entry:
  %access.addr = alloca ptr, align 8
  %size.addr = alloca i32, align 4
  %offset.addr = alloca i64, align 8
  %dir.addr = alloca ptr, align 8
  %val.addr = alloca i64, align 8
  %val2.addr = alloca i64, align 8
  store ptr %access, ptr %access.addr, align 8
  store i32 %size, ptr %size.addr, align 4
  store i64 %offset, ptr %offset.addr, align 8
  store ptr %dir, ptr %dir.addr, align 8
  store i64 %val, ptr %val.addr, align 8
  store i64 %val2, ptr %val2.addr, align 8
  %0 = load ptr, ptr %access.addr, align 8
  %1 = load i32, ptr %size.addr, align 4
  %2 = load i64, ptr %offset.addr, align 8
  %3 = load ptr, ptr %dir.addr, align 8
  %4 = load i64, ptr %val.addr, align 8
  %5 = load i64, ptr %val2.addr, align 8
  call void @_nocheck__trace_sdhci_access(ptr noundef %0, i32 noundef %1, i64 noundef %2, ptr noundef %3, i64 noundef %4, i64 noundef %5)
  ret void
}