; Function Attrs: nounwind sspstrong uwtable
define internal fastcc void @trace_sdhci_access(ptr noundef %access, i32 noundef range(i32 0, -7) %size, i64 noundef %offset, ptr noundef %dir, i64 noundef range(i64 0, 4294967296) %val, i64 noundef range(i64 0, 4294967296) %val2) unnamed_addr #0 {
entry:
  %_now.i = alloca %struct.timeval, align 8
  call void @llvm.lifetime.start.p0(i64 16, ptr nonnull %_now.i)
  %0 = load i32, ptr @trace_events_enabled_count, align 4
  %tobool.i = icmp ne i32 %0, 0
  %1 = load i16, ptr @_TRACE_SDHCI_ACCESS_DSTATE, align 2
  %tobool4.i = icmp ne i16 %1, 0
  %or.cond.i = select i1 %tobool.i, i1 %tobool4.i, i1 false
  br i1 %or.cond.i, label %land.lhs.true5.i, label %_nocheck__trace_sdhci_access.exit

land.lhs.true5.i:                                 ; preds = %entry
  %2 = load i32, ptr @qemu_loglevel, align 4
  %and.i.i = and i32 %2, 32768
  %cmp.i.not.i = icmp eq i32 %and.i.i, 0
  br i1 %cmp.i.not.i, label %_nocheck__trace_sdhci_access.exit, label %if.then.i

if.then.i:                                        ; preds = %land.lhs.true5.i
  %3 = load i8, ptr @message_with_timestamp, align 1
  %tobool7.i = trunc i8 %3 to i1
  br i1 %tobool7.i, label %if.then8.i, label %if.else.i

if.then8.i:                                       ; preds = %if.then.i
  %call9.i = call i32 @gettimeofday(ptr noundef nonnull %_now.i, ptr noundef null) #12
  %call10.i = tail call i32 @qemu_get_thread_id() #12
  %4 = load i64, ptr %_now.i, align 8
  %tv_usec.i = getelementptr inbounds nuw i8, ptr %_now.i, i64 8
  %5 = load i64, ptr %tv_usec.i, align 8
  tail call void (ptr, ...) @qemu_log(ptr noundef nonnull @.str.66, i32 noundef %call10.i, i64 noundef %4, i64 noundef %5, ptr noundef %access, i32 noundef range(i32 0, -7) %size, i64 noundef %offset, ptr noundef %dir, i64 noundef range(i64 0, 4294967296) %val, i64 noundef range(i64 0, 4294967296) %val2) #12
  br label %_nocheck__trace_sdhci_access.exit

if.else.i:                                        ; preds = %if.then.i
  tail call void (ptr, ...) @qemu_log(ptr noundef nonnull @.str.67, ptr noundef %access, i32 noundef range(i32 0, -7) %size, i64 noundef %offset, ptr noundef %dir, i64 noundef range(i64 0, 4294967296) %val, i64 noundef range(i64 0, 4294967296) %val2) #12
  br label %_nocheck__trace_sdhci_access.exit

_nocheck__trace_sdhci_access.exit:                ; preds = %entry, %land.lhs.true5.i, %if.then8.i, %if.else.i
  call void @llvm.lifetime.end.p0(i64 16, ptr nonnull %_now.i)
  ret void
}